; Function Attrs: mustprogress uwtable
define void @_ZN10open_spiel5StateC2ESt10shared_ptrIKNS_4GameEE(ptr noundef nonnull align 8 dereferenceable(60) initializes((0, 24)) %0, ptr noundef readonly captures(none) %1) unnamed_addr #3 align 2 personality ptr @__gxx_personality_v0 {
  store ptr getelementptr inbounds nuw inrange(-16, 304) (i8, ptr @_ZTVN10open_spiel5StateE, i64 16), ptr %0, align 8
  %3 = getelementptr inbounds nuw i8, ptr %0, i64 8
  %4 = load ptr, ptr %1, align 8
  store ptr %4, ptr %3, align 8
  %5 = getelementptr inbounds nuw i8, ptr %0, i64 16
  %6 = getelementptr inbounds nuw i8, ptr %1, i64 8
  %7 = load ptr, ptr %6, align 8
  store ptr %7, ptr %5, align 8
  %.not.i.i.i = icmp eq ptr %7, null
  br i1 %.not.i.i.i, label %_ZNSt10shared_ptrIKN10open_spiel4GameEEC2ERKS3_.exit, label %8

8:                                                ; preds = %2
  %9 = getelementptr inbounds nuw i8, ptr %7, i64 8
  %10 = load i8, ptr @__libc_single_threaded, align 1
  %.not.i.i.i.i = icmp eq i8 %10, 0
  br i1 %.not.i.i.i.i, label %14, label %11

11:                                               ; preds = %8
  %12 = load i32, ptr %9, align 4
  %13 = add nsw i32 %12, 1
  store i32 %13, ptr %9, align 4
  br label %_ZNSt10shared_ptrIKN10open_spiel4GameEEC2ERKS3_.exit

14:                                               ; preds = %8
  %15 = atomicrmw volatile add ptr %9, i32 1 acq_rel, align 4
  br label %_ZNSt10shared_ptrIKN10open_spiel4GameEEC2ERKS3_.exit

_ZNSt10shared_ptrIKN10open_spiel4GameEEC2ERKS3_.exit: ; preds = %2, %11, %14
  %16 = load ptr, ptr %1, align 8
  %17 = load ptr, ptr %16, align 8
  %18 = getelementptr inbounds nuw i8, ptr %17, i64 16
  %19 = load ptr, ptr %18, align 8
  %20 = invoke noundef i32 %19(ptr noundef nonnull align 8 dereferenceable(280) %16)
          to label %21 unwind label %31

21:                                               ; preds = %_ZNSt10shared_ptrIKN10open_spiel4GameEEC2ERKS3_.exit
  %22 = getelementptr inbounds nuw i8, ptr %0, i64 24
  store i32 %20, ptr %22, align 8
  %23 = load ptr, ptr %1, align 8
  %24 = load ptr, ptr %23, align 8
  %25 = getelementptr inbounds nuw i8, ptr %24, i64 56
  %26 = load ptr, ptr %25, align 8
  %27 = invoke noundef i32 %26(ptr noundef nonnull align 8 dereferenceable(280) %23)
          to label %28 unwind label %31

28:                                               ; preds = %21
  %29 = getelementptr inbounds nuw i8, ptr %0, i64 28
  store i32 %27, ptr %29, align 4
  %30 = getelementptr inbounds nuw i8, ptr %0, i64 32
  tail call void @llvm.memset.p0.i64(ptr noundef nonnull align 8 dereferenceable(28) %30, i8 0, i64 28, i1 false)
  ret void

31:                                               ; preds = %21, %_ZNSt10shared_ptrIKN10open_spiel4GameEEC2ERKS3_.exit
  %32 = landingpad { ptr, i32 }
          cleanup
  tail call void @_ZNSt10shared_ptrIKN10open_spiel4GameEED2Ev(ptr noundef nonnull align 8 dereferenceable(16) %3) #28
  resume { ptr, i32 } %32
}